target datalayout = "e-m:e-p270:32:32-p271:32:32-p272:64:64-i64:64-i128:128-f80:128-n8:16:32:64-S128"
target triple = "x86_64-unknown-linux-gnu"

; Function Attrs: mustprogress uwtable
define i32 @ucal_getAttribute_75(ptr noundef %cal, i32 noundef %attr) #1 {
entry:
  %retval = alloca i32, align 4
  %cal.addr = alloca ptr, align 8
  %attr.addr = alloca i32, align 4
  store ptr %cal, ptr %cal.addr, align 8
  store i32 %attr, ptr %attr.addr, align 4
  %0 = load i32, ptr %attr.addr, align 4
  switch i32 %0, label %sw.default [
    i32 0, label %sw.bb
    i32 1, label %sw.bb1
    i32 2, label %sw.bb3
    i32 3, label %sw.bb6
    i32 4, label %sw.bb8
  ]

sw.bb:                                            ; preds = %entry
  %1 = load ptr, ptr %cal.addr, align 8
  %call = call noundef signext i8 @_ZNK6icu_758Calendar9isLenientEv(ptr noundef nonnull align 8 dereferenceable(618) %1)
  %conv = sext i8 %call to i32
  store i32 %conv, ptr %retval, align 4
  br label %return

sw.bb1:                                           ; preds = %entry
  %2 = load ptr, ptr %cal.addr, align 8
  %call2 = call noundef i32 @_ZNK6icu_758Calendar17getFirstDayOfWeekEv(ptr noundef nonnull align 8 dereferenceable(618) %2)
  store i32 %call2, ptr %retval, align 4
  br label %return

sw.bb3:                                           ; preds = %entry
  %3 = load ptr, ptr %cal.addr, align 8
  %call4 = call noundef zeroext i8 @_ZNK6icu_758Calendar25getMinimalDaysInFirstWeekEv(ptr noundef nonnull align 8 dereferenceable(618) %3)
  %conv5 = zext i8 %call4 to i32
  store i32 %conv5, ptr %retval, align 4
  br label %return

sw.bb6:                                           ; preds = %entry
  %4 = load ptr, ptr %cal.addr, align 8
  %call7 = call noundef i32 @_ZNK6icu_758Calendar25getRepeatedWallTimeOptionEv(ptr noundef nonnull align 8 dereferenceable(618) %4)
  store i32 %call7, ptr %retval, align 4
  br label %return

sw.bb8:                                           ; preds = %entry
  %5 = load ptr, ptr %cal.addr, align 8
  %call9 = call noundef i32 @_ZNK6icu_758Calendar24getSkippedWallTimeOptionEv(ptr noundef nonnull align 8 dereferenceable(618) %5)
  store i32 %call9, ptr %retval, align 4
  br label %return

sw.default:                                       ; preds = %entry
  br label %sw.epilog

sw.epilog:                                        ; preds = %sw.default
  store i32 -1, ptr %retval, align 4
  br label %return

return:                                           ; preds = %sw.epilog, %sw.bb8, %sw.bb6, %sw.bb3, %sw.bb1, %sw.bb
  %6 = load i32, ptr %retval, align 4
  ret i32 %6
}