; Function Attrs: mustprogress uwtable
define noundef i32 @ucal_getAttribute_75(ptr noundef %cal, i32 noundef %attr) local_unnamed_addr #1 {
entry:
  switch i32 %attr, label %return [
    i32 0, label %sw.bb
    i32 1, label %sw.bb1
    i32 2, label %sw.bb3
    i32 3, label %sw.bb6
    i32 4, label %sw.bb8
  ]

sw.bb:                                            ; preds = %entry
  %call = tail call noundef signext i8 @_ZNK6icu_758Calendar9isLenientEv(ptr noundef nonnull align 8 dereferenceable(618) %cal)
  %conv = sext i8 %call to i32
  br label %return

sw.bb1:                                           ; preds = %entry
  %call2 = tail call noundef i32 @_ZNK6icu_758Calendar17getFirstDayOfWeekEv(ptr noundef nonnull align 8 dereferenceable(618) %cal)
  br label %return

sw.bb3:                                           ; preds = %entry
  %call4 = tail call noundef zeroext i8 @_ZNK6icu_758Calendar25getMinimalDaysInFirstWeekEv(ptr noundef nonnull align 8 dereferenceable(618) %cal)
  %conv5 = zext i8 %call4 to i32
  br label %return

sw.bb6:                                           ; preds = %entry
  %call7 = tail call noundef i32 @_ZNK6icu_758Calendar25getRepeatedWallTimeOptionEv(ptr noundef nonnull align 8 dereferenceable(618) %cal)
  br label %return

sw.bb8:                                           ; preds = %entry
  %call9 = tail call noundef i32 @_ZNK6icu_758Calendar24getSkippedWallTimeOptionEv(ptr noundef nonnull align 8 dereferenceable(618) %cal)
  br label %return

return:                                           ; preds = %entry, %sw.bb8, %sw.bb6, %sw.bb3, %sw.bb1, %sw.bb
  %retval.0 = phi i32 [ %call9, %sw.bb8 ], [ %call7, %sw.bb6 ], [ %conv5, %sw.bb3 ], [ %call2, %sw.bb1 ], [ %conv, %sw.bb ], [ -1, %entry ]
  ret i32 %retval.0
}